; Function Attrs: mustprogress nounwind uwtable
define dso_local noundef zeroext i1 @_ZNK4llvm14RISCVInstrInfo27isAssociativeAndCommutativeERKNS_12MachineInstrEb(ptr noundef nonnull align 8 dereferenceable(88) %0, ptr nocapture noundef nonnull readonly align 8 dereferenceable(70) %1, i1 noundef zeroext %2) unnamed_addr #2 align 2 {
  %4 = tail call noundef zeroext i1 @_ZNK4llvm14RISCVInstrInfo33isVectorAssociativeAndCommutativeERKNS_12MachineInstrEb(ptr noundef nonnull align 8 dereferenceable(88) %0, ptr noundef nonnull align 8 dereferenceable(70) %1, i1 noundef zeroext %2)
  br i1 %4, label %23, label %5

5:                                                ; preds = %3
  %6 = getelementptr inbounds nuw i8, ptr %1, i64 68
  %7 = load i16, ptr %6, align 4
  %8 = zext i16 %7 to i32
  br i1 %2, label %9, label %15

9:                                                ; preds = %5
  %10 = load ptr, ptr %0, align 8
  %11 = getelementptr inbounds i8, ptr %10, i64 560
  %12 = load ptr, ptr %11, align 8
  %13 = tail call i64 %12(ptr noundef nonnull align 8 dereferenceable(88) %0, i32 noundef %8) #25
  %.sroa.0.0.extract.trunc = trunc i64 %13 to i32
  %14 = and i64 %13, 4294967296
  %.not = icmp eq i64 %14, 0
  br i1 %.not, label %23, label %15

15:                                               ; preds = %9, %5
  %.0 = phi i32 [ %8, %5 ], [ %.sroa.0.0.extract.trunc, %9 ]
  switch i32 %.0, label %23 [
    i32 12514, label %_ZL6isFADDj.exit.thread
    i32 12516, label %_ZL6isFADDj.exit.thread
    i32 12511, label %_ZL6isFADDj.exit.thread
    i32 12676, label %_ZL6isFADDj.exit.thread
    i32 12678, label %_ZL6isFADDj.exit.thread
    i32 12673, label %_ZL6isFADDj.exit.thread
    i32 11884, label %22
    i32 11887, label %22
    i32 12068, label %22
    i32 12859, label %22
    i32 13804, label %22
    i32 12854, label %22
    i32 12858, label %22
    i32 12811, label %22
    i32 12812, label %22
    i32 12809, label %22
    i32 12810, label %22
    i32 12662, label %22
    i32 12664, label %22
    i32 12659, label %22
    i32 12652, label %22
    i32 12654, label %22
    i32 12649, label %22
  ]

_ZL6isFADDj.exit.thread:                          ; preds = %15, %15, %15, %15, %15, %15
  %16 = getelementptr inbounds nuw i8, ptr %1, i64 44
  %17 = load i32, ptr %16, align 4
  %18 = and i32 %17, 1024
  %.not15 = icmp eq i32 %18, 0
  br i1 %.not15, label %23, label %19

19:                                               ; preds = %_ZL6isFADDj.exit.thread
  %20 = and i32 %17, 64
  %21 = icmp ne i32 %20, 0
  br label %23

22:                                               ; preds = %15, %15, %15, %15, %15, %15, %15, %15, %15, %15, %15, %15, %15, %15, %15, %15, %15
  br label %23

23:                                               ; preds = %15, %_ZL6isFADDj.exit.thread, %19, %9, %3, %22
  %.011 = phi i1 [ true, %22 ], [ true, %3 ], [ false, %9 ], [ false, %_ZL6isFADDj.exit.thread ], [ %21, %19 ], [ false, %15 ]
  ret i1 %.011
}